target datalayout = "e-m:e-p270:32:32-p271:32:32-p272:64:64-i64:64-i128:128-f80:128-n8:16:32:64-S128"
target triple = "x86_64-pc-linux-gnu"

%struct.png_color_8_struct = type { i8, i8, i8, i8, i8 }
%struct.png_color_16_struct = type { i8, i16, i16, i16, i16 }
%struct.png_colorspace = type { i32, %struct.png_xy, %struct.png_XYZ, i16, i16 }
%struct.png_xy = type { i32, i32, i32, i32, i32, i32, i32, i32 }
%struct.png_XYZ = type { i32, i32, i32, i32, i32, i32, i32, i32, i32 }
%struct.png_info_def = type { i32, i32, i32, i64, ptr, i16, i16, i8, i8, i8, i8, i8, i8, i8, i8, [8 x i8], %struct.png_colorspace, ptr, ptr, i32, i32, i32, ptr, %struct.png_time_struct, %struct.png_color_8_struct, ptr, %struct.png_color_16_struct, %struct.png_color_16_struct, i32, i32, i8, i32, i32, i8, i32, ptr, ptr, ptr, ptr, i32, i32, ptr, ptr, i8, i8, i32, ptr, i32, ptr, i32, i8, ptr, ptr, ptr }
%struct.png_time_struct = type { i16, i8, i8, i8, i8, i8 }

; Function Attrs: nounwind uwtable
define float @png_get_pixel_aspect_ratio(ptr noalias noundef %0, ptr noalias noundef %1) #0 {
  %3 = alloca float, align 4
  %4 = alloca ptr, align 8
  %5 = alloca ptr, align 8
  store ptr %0, ptr %4, align 8
  store ptr %1, ptr %5, align 8
  %6 = load ptr, ptr %4, align 8
  %7 = icmp ne ptr %6, null
  br i1 %7, label %8, label %33

8:                                                ; preds = %2
  %9 = load ptr, ptr %5, align 8
  %10 = icmp ne ptr %9, null
  br i1 %10, label %11, label %33

11:                                               ; preds = %8
  %12 = load ptr, ptr %5, align 8
  %13 = getelementptr inbounds %struct.png_info_def, ptr %12, i32 0, i32 2
  %14 = load i32, ptr %13, align 8
  %15 = and i32 %14, 128
  %16 = icmp ne i32 %15, 0
  br i1 %16, label %17, label %33

17:                                               ; preds = %11
  %18 = load ptr, ptr %5, align 8
  %19 = getelementptr inbounds %struct.png_info_def, ptr %18, i32 0, i32 31
  %20 = load i32, ptr %19, align 8
  %21 = icmp ne i32 %20, 0
  br i1 %21, label %22, label %32

22:                                               ; preds = %17
  %23 = load ptr, ptr %5, align 8
  %24 = getelementptr inbounds %struct.png_info_def, ptr %23, i32 0, i32 32
  %25 = load i32, ptr %24, align 4
  %26 = uitofp i32 %25 to float
  %27 = load ptr, ptr %5, align 8
  %28 = getelementptr inbounds %struct.png_info_def, ptr %27, i32 0, i32 31
  %29 = load i32, ptr %28, align 8
  %30 = uitofp i32 %29 to float
  %31 = fdiv float %26, %30
  store float %31, ptr %3, align 4
  br label %34

32:                                               ; preds = %17
  br label %33

33:                                               ; preds = %32, %11, %8, %2
  store float 0.000000e+00, ptr %3, align 4
  br label %34

34:                                               ; preds = %33, %22
  %35 = load float, ptr %3, align 4
  ret float %35
}