; Function Attrs: mustprogress nofree norecurse nosync nounwind willreturn memory(argmem: read) uwtable
define float @png_get_pixel_aspect_ratio(ptr noalias noundef readnone %0, ptr noalias noundef readonly %1) local_unnamed_addr #0 {
  %3 = icmp ne ptr %0, null
  %4 = icmp ne ptr %1, null
  %or.cond = and i1 %3, %4
  br i1 %or.cond, label %5, label %18

5:                                                ; preds = %2
  %6 = getelementptr inbounds i8, ptr %1, i64 8
  %7 = load i32, ptr %6, align 8
  %8 = and i32 %7, 128
  %.not = icmp eq i32 %8, 0
  br i1 %.not, label %18, label %9

9:                                                ; preds = %5
  %10 = getelementptr inbounds i8, ptr %1, i64 224
  %11 = load i32, ptr %10, align 8
  %.not10 = icmp eq i32 %11, 0
  br i1 %.not10, label %18, label %12

12:                                               ; preds = %9
  %13 = getelementptr inbounds i8, ptr %1, i64 228
  %14 = load i32, ptr %13, align 4
  %15 = uitofp i32 %14 to float
  %16 = uitofp i32 %11 to float
  %17 = fdiv float %15, %16
  br label %18

18:                                               ; preds = %2, %5, %9, %12
  %.0 = phi float [ %17, %12 ], [ 0.000000e+00, %9 ], [ 0.000000e+00, %5 ], [ 0.000000e+00, %2 ]
  ret float %.0
}